Certificate:
    Data:
        Version: 3 (0x2)
        Serial Number: 3 (0x3)
    Signature Algorithm: sha256WithRSAEncryption
        Issuer: C=DE, O=For Testing Purposes Only, OU=Christian Heimes, CN=Trust Test Intermediate CA
        Validity
            Not Before: Jan 25 10:19:52 2016 GMT
            Not After : Jan 25 10:19:52 2026 GMT
        Subject: C=DE, O=For Testing Purposes Only, OU=Christian Heimes, CN=cheimes@redhat.com
        Subject Public Key Info:
            Public Key Algorithm: rsaEncryption
                Public-Key: (2048 bit)
                Modulus:
                    00:ce:cf:ae:e2:24:f7:d8:1d:1c:c8:45:fc:d9:3a:
                    74:1b:2f:18:bd:b8:6a:eb:80:0b:a9:33:72:6a:1e:
                    c9:d0:2e:0b:d8:64:52:c3:e4:8b:c1:05:11:38:a3:
                    11:44:60:e7:21:71:d1:3a:72:df:ae:cf:21:eb:62:
                    9f:02:bc:31:3b:ab:c8:15:42:9c:2e:a2:aa:5c:93:
                    f3:03:f1:6e:93:c0:5f:ac:80:8d:d5:c3:d2:ad:de:
                    bd:ee:e0:61:08:79:16:17:a5:27:dc:56:16:bc:05:
                    97:2c:0a:59:2c:00:e8:59:c9:96:89:e4:8a:fc:20:
                    7c:0a:8f:fe:e1:a2:40:69:da:79:c3:a1:fb:60:7a:
                    8f:04:03:48:3a:c2:41:66:20:f2:95:17:61:1f:84:
                    e3:9a:c0:a2:66:87:d7:21:25:68:8d:12:51:b8:90:
                    92:92:89:65:b2:51:dd:20:5a:b1:b3:af:e8:9e:5b:
                    05:8a:43:7b:4a:41:0a:bf:84:52:20:2c:92:b0:a0:
                    28:c8:03:d9:b8:f1:28:4e:2f:f6:8d:91:c3:9d:27:
                    70:65:d9:b2:2d:c3:12:97:14:e5:64:b5:60:3b:5a:
                    82:df:c5:10:9c:a5:cf:b5:76:9f:81:c0:db:b9:9c:
                    dc:a4:d3:da:7c:72:13:40:e3:c4:0c:e9:02:3d:ea:
                    93:23
                Exponent: 65537 (0x10001)
        X509v3 extensions:
            X509v3 Basic Constraints: critical
                CA:FALSE
            X509v3 Key Usage: critical
                Digital Signature, Non Repudiation, Key Encipherment
            X509v3 Extended Key Usage: critical
                E-mail Protection
            X509v3 Subject Key Identifier: 
                E5:C3:1C:15:15:96:82:5A:6E:8A:EA:65:05:82:3D:47:D8:1D:F1:2B
            X509v3 Authority Key Identifier: 
                keyid:F8:25:CA:42:17:BF:8F:E5:E3:38:76:F8:46:C8:86:2C:46:81:86:74

    Signature Algorithm: sha256WithRSAEncryption
         73:35:74:d9:91:fd:02:18:8d:57:ec:d1:f7:5a:5f:20:88:b0:
         cb:33:c1:30:39:ca:d8:4d:22:7a:4b:dc:bf:f2:9d:c9:5c:cd:
         3d:ff:76:58:6b:c5:fd:f7:a5:ba:24:e5:54:bd:6b:ee:06:b6:
         7e:40:5c:b0:11:a4:70:82:94:bb:a6:d9:b0:54:8c:34:64:79:
         c5:69:9a:59:bd:e9:d5:ff:93:18:ee:cc:21:fe:89:d1:bf:5e:
         d4:8b:6c:be:c1:b2:4b:42:cc:21:5b:cc:be:e6:65:f3:2e:9b:
         11:e2:42:4f:2d:cf:a0:d3:38:00:24:3b:8b:bb:0c:b7:4e:3d:
         76:9f:66:eb:26:5f:92:ee:5e:63:b6:73:c2:ba:27:ec:16:bc:
         2f:b8:d0:d9:f3:e0:62:ad:fd:16:43:d4:c1:64:e4:91:12:9f:
         50:f5:b2:82:e7:81:30:c5:e5:99:b8:94:dd:14:2a:a9:af:d2:
         57:8a:88:c6:51:a2:c6:60:26:91:89:7d:ea:10:6f:45:00:c6:
         0c:66:00:7e:7d:ea:96:cd:44:0f:19:c2:af:d2:d9:37:5f:c2:
         15:37:52:f0:24:9b:f1:d2:6b:6a:d6:02:19:04:66:e3:b4:73:
         31:42:44:f0:d8:72:b8:4d:61:ff:fa:6b:22:97:ba:9a:b2:a1:
         db:39:45:c9
-----BEGIN CERTIFICATE-----
MIIDzTCCArWgAwIBAgIBAzANBgkqhkiG9w0BAQsFADBxMQswCQYDVQQGEwJERTEi
MCAGA1UECgwZRm9yIFRlc3RpbmcgUHVycG9zZXMgT25seTEZMBcGA1UECwwQQ2hy
aXN0aWFuIEhlaW1lczEjMCEGA1UEAwwaVHJ1c3QgVGVzdCBJbnRlcm1lZGlhdGUg
Q0EwHhcNMTYwMTI1MTAxOTUyWhcNMjYwMTI1MTAxOTUyWjBpMQswCQYDVQQGEwJE
RTEiMCAGA1UECgwZRm9yIFRlc3RpbmcgUHVycG9zZXMgT25seTEZMBcGA1UECwwQ
Q2hyaXN0aWFuIEhlaW1lczEbMBkGA1UEAwwSY2hlaW1lc0ByZWRoYXQuY29tMIIB
IjANBgkqhkiG9w0BAQEFAAOCAQ8AMIIBCgKCAQEAzs+u4iT32B0cyEX82Tp0Gy8Y
vbhq64ALqTNyah7J0C4L2GRSw+SLwQUROKMRRGDnIXHROnLfrs8h62KfArwxO6vI
FUKcLqKqXJPzA/Fuk8BfrICN1cPSrd697uBhCHkWF6Un3FYWvAWXLApZLADoWcmW
ieSK/CB8Co/+4aJAadp5w6H7YHqPBANIOsJBZiDylRdhH4TjmsCiZofXISVojRJR
uJCSkollslHdIFqxs6/onlsFikN7SkEKv4RSICySsKAoyAPZuPEoTi/2jZHDnSdw
ZdmyLcMSlxTlZLVgO1qC38UQnKXPtXafgcDbuZzcpNPafHITQOPEDOkCPeqTIwID
AQABo3gwdjAMBgNVHRMBAf8EAjAAMA4GA1UdDwEB/wQEAwIF4DAWBgNVHSUBAf8E
DDAKBggrBgEFBQcDBDAdBgNVHQ4EFgQU5cMcFRWWglpuiuplBYI9R9gd8SswHwYD
VR0jBBgwFoAU+CXKQhe/j+XjOHb4RsiGLEaBhnQwDQYJKoZIhvcNAQELBQADggEB
AHM1dNmR/QIYjVfs0fdaXyCIsMszwTA5ythNInpL3L/ynclczT3/dlhrxf33pbok
5VS9a+4Gtn5AXLARpHCClLum2bBUjDRkecVpmlm96dX/kxjuzCH+idG/XtSLbL7B
sktCzCFbzL7mZfMumxHiQk8tz6DTOAAkO4u7DLdOPXafZusmX5LuXmO2c8K6J+wW
vC+40Nnz4GKt/RZD1MFk5JESn1D1soLngTDF5Zm4lN0UKqmv0leKiMZRosZgJpGJ
feoQb0UAxgxmAH596pbNRA8Zwq/S2TdfwhU3UvAkm/HSa2rWAhkEZuO0czFCRPDY
crhNYf/6ayKXupqyods5Rck=
-----END CERTIFICATE-----
