Certificate:
    Data:
        Version: 3 (0x2)
        Serial Number: 1 (0x1)
    Signature Algorithm: sha256WithRSAEncryption
        Issuer: C=DE, O=For Testing Purposes Only, OU=Christian Heimes, CN=Trust Test Root CA
        Validity
            Not Before: Jan 25 10:19:51 2016 GMT
            Not After : Jan 25 10:19:51 2026 GMT
        Subject: C=DE, O=For Testing Purposes Only, OU=Christian Heimes, CN=Trust Test Root CA
        Subject Public Key Info:
            Public Key Algorithm: rsaEncryption
                Public-Key: (2048 bit)
                Modulus:
                    00:bd:25:7a:50:8e:a0:7e:1c:a9:24:67:aa:e4:91:
                    5f:3e:13:cc:f1:f0:4b:f7:ed:01:1a:2e:4d:57:f1:
                    1b:0e:62:31:2f:c5:49:e0:15:d0:ac:81:e9:10:c4:
                    69:62:e4:73:8c:39:1b:34:a2:d1:0c:06:1a:de:ec:
                    fd:9b:36:a3:93:41:69:38:35:86:d6:c3:12:ba:87:
                    23:c5:4a:ce:82:69:ff:65:89:ae:64:19:c4:87:75:
                    e3:2e:01:fb:56:34:29:0f:83:16:2c:b3:92:56:2d:
                    99:15:d5:ab:6e:88:cb:27:58:03:37:89:bb:06:dd:
                    5b:a3:26:db:37:f1:96:4d:af:0f:a6:43:e0:9c:e1:
                    f2:7e:09:0b:b4:7f:47:ac:4a:48:c6:3a:ac:9b:f8:
                    ed:f8:88:61:e2:3a:e7:ba:7c:20:25:c0:62:c4:eb:
                    99:16:d8:7a:37:61:66:b1:bc:f2:48:8d:c2:d7:5f:
                    00:18:97:f5:3f:50:a8:47:6d:7c:72:68:02:5e:eb:
                    f0:6b:03:16:1e:96:e2:8c:da:3c:ee:19:f8:c4:7e:
                    59:2e:98:f9:e2:4a:e2:e3:85:6c:eb:f6:d2:da:00:
                    d5:81:fd:2c:2e:3d:88:3f:8e:c0:e7:a0:f9:42:e9:
                    83:f7:de:b9:52:37:6b:96:28:3d:a0:f6:b6:d0:c3:
                    20:41
                Exponent: 65537 (0x10001)
        X509v3 extensions:
            X509v3 Basic Constraints: critical
                CA:TRUE
            X509v3 Key Usage: critical
                Certificate Sign, CRL Sign
            X509v3 Extended Key Usage: critical
                TLS Web Server Authentication, TLS Web Client Authentication
            X509v3 Subject Key Identifier: 
                90:C6:67:34:A3:14:3E:B8:0E:80:11:2B:5D:1F:31:29:38:50:75:D4
            X509v3 Authority Key Identifier: 
                keyid:90:C6:67:34:A3:14:3E:B8:0E:80:11:2B:5D:1F:31:29:38:50:75:D4

    Signature Algorithm: sha256WithRSAEncryption
         45:8a:34:76:32:c9:38:bf:66:cb:80:0e:94:e9:0b:74:04:7a:
         b9:f3:38:7a:45:e4:5e:60:e5:cc:e7:fc:a0:86:64:fa:fe:36:
         f4:2a:3a:93:09:6e:cc:47:ac:4a:77:03:23:f8:18:d9:e4:5b:
         eb:31:e5:e1:ba:7d:93:ff:c3:ed:36:73:54:0c:eb:d3:bc:e5:
         ed:8f:b0:5a:48:f6:4f:80:dc:7e:67:6d:fd:58:e6:2c:71:6e:
         25:2a:e6:ac:16:30:c4:3d:14:bb:60:34:df:7d:51:8f:4b:16:
         02:25:37:db:2e:cf:a2:c0:3b:b3:9e:b0:e2:68:f1:98:52:01:
         7b:e0:83:55:81:a9:f2:52:b8:02:62:21:97:36:11:c9:36:f7:
         2f:ee:67:a9:fe:5f:0c:6a:77:81:90:d9:0c:5b:ab:32:6f:ba:
         91:36:53:b7:01:dc:09:b3:86:d6:b3:9d:99:95:b1:42:19:77:
         35:41:ec:48:5b:96:00:15:3f:39:15:4a:98:69:a3:c4:80:d6:
         fc:02:a1:c0:5e:72:aa:ab:19:3f:5c:53:df:a8:2a:cf:e2:d2:
         1d:84:e3:cb:27:a1:e1:62:c3:f2:8a:b5:7e:01:44:86:63:20:
         44:73:91:3a:50:62:b6:09:5f:a8:bf:b0:69:36:30:44:e7:ed:
         bd:b3:c3:7a
Trusted Uses:
  TLS Web Server Authentication
Rejected Uses:
  TLS Web Server Authentication
-----BEGIN TRUSTED CERTIFICATE-----
MIID1DCCArygAwIBAgIBATANBgkqhkiG9w0BAQsFADBpMQswCQYDVQQGEwJERTEi
MCAGA1UECgwZRm9yIFRlc3RpbmcgUHVycG9zZXMgT25seTEZMBcGA1UECwwQQ2hy
aXN0aWFuIEhlaW1lczEbMBkGA1UEAwwSVHJ1c3QgVGVzdCBSb290IENBMB4XDTE2
MDEyNTEwMTk1MVoXDTI2MDEyNTEwMTk1MVowaTELMAkGA1UEBhMCREUxIjAgBgNV
BAoMGUZvciBUZXN0aW5nIFB1cnBvc2VzIE9ubHkxGTAXBgNVBAsMEENocmlzdGlh
biBIZWltZXMxGzAZBgNVBAMMElRydXN0IFRlc3QgUm9vdCBDQTCCASIwDQYJKoZI
hvcNAQEBBQADggEPADCCAQoCggEBAL0lelCOoH4cqSRnquSRXz4TzPHwS/ftARou
TVfxGw5iMS/FSeAV0KyB6RDEaWLkc4w5GzSi0QwGGt7s/Zs2o5NBaTg1htbDErqH
I8VKzoJp/2WJrmQZxId14y4B+1Y0KQ+DFiyzklYtmRXVq26IyydYAzeJuwbdW6Mm
2zfxlk2vD6ZD4Jzh8n4JC7R/R6xKSMY6rJv47fiIYeI657p8ICXAYsTrmRbYejdh
ZrG88kiNwtdfABiX9T9QqEdtfHJoAl7r8GsDFh6W4ozaPO4Z+MR+WS6Y+eJK4uOF
bOv20toA1YH9LC49iD+OwOeg+ULpg/feuVI3a5YoPaD2ttDDIEECAwEAAaOBhjCB
gzAPBgNVHRMBAf8EBTADAQH/MA4GA1UdDwEB/wQEAwIBBjAgBgNVHSUBAf8EFjAU
BggrBgEFBQcDAQYIKwYBBQUHAwIwHQYDVR0OBBYEFJDGZzSjFD64DoARK10fMSk4
UHXUMB8GA1UdIwQYMBaAFJDGZzSjFD64DoARK10fMSk4UHXUMA0GCSqGSIb3DQEB
CwUAA4IBAQBFijR2Msk4v2bLgA6U6Qt0BHq58zh6ReReYOXM5/yghmT6/jb0KjqT
CW7MR6xKdwMj+BjZ5FvrMeXhun2T/8PtNnNUDOvTvOXtj7BaSPZPgNx+Z239WOYs
cW4lKuasFjDEPRS7YDTffVGPSxYCJTfbLs+iwDuznrDiaPGYUgF74INVganyUrgC
YiGXNhHJNvcv7mep/l8ManeBkNkMW6syb7qRNlO3AdwJs4bWs52ZlbFCGXc1QexI
W5YAFT85FUqYaaPEgNb8AqHAXnKqqxk/XFPfqCrP4tIdhOPLJ6HhYsPyirV+AUSG
YyBEc5E6UGK2CV+ov7BpNjBE5+29s8N6MBgwCgYIKwYBBQUHAwGgCgYIKwYBBQUH
AwE=
-----END TRUSTED CERTIFICATE-----
