Certificate:
    Data:
        Version: 3 (0x2)
        Serial Number: 1 (0x1)
    Signature Algorithm: sha256WithRSAEncryption
        Issuer: C=DE, O=For Testing Purposes Only, OU=Christian Heimes, CN=Trust Test Intermediate CA
        Validity
            Not Before: Jan 25 10:19:51 2016 GMT
            Not After : Jan 25 10:19:51 2026 GMT
        Subject: C=DE, O=For Testing Purposes Only, OU=Christian Heimes, CN=trust.example.org
        Subject Public Key Info:
            Public Key Algorithm: rsaEncryption
                Public-Key: (2048 bit)
                Modulus:
                    00:c5:b4:28:a8:81:0c:1f:6e:13:19:6f:01:6b:9b:
                    5f:ec:3c:d0:39:96:98:2b:37:26:9a:d1:f9:81:f0:
                    c8:76:7c:31:20:a9:84:6e:ba:81:4c:45:9f:f0:f7:
                    bb:4b:fe:81:0d:91:5e:af:4f:cb:7e:8f:9f:44:21:
                    4f:a6:05:e9:a0:d9:a8:19:e4:35:8d:8c:94:eb:aa:
                    87:b4:a2:e9:13:3d:3f:59:10:a9:4d:72:fd:75:ef:
                    95:c2:07:55:bf:bd:ba:65:77:e4:39:55:ea:ed:71:
                    d1:29:28:63:76:f7:42:5c:30:15:71:fd:e8:48:b0:
                    9a:43:c7:a5:43:99:f8:da:87:82:0b:db:cb:20:b4:
                    93:c3:cf:ca:20:95:69:43:72:f5:78:ad:f9:c7:90:
                    0e:a5:f6:ec:7f:a4:80:eb:fa:b6:70:6e:56:83:84:
                    e1:52:73:8f:fa:b3:c5:78:ba:74:f9:af:52:bb:55:
                    29:18:42:cd:39:1a:0b:ab:8e:e7:b2:ff:fc:99:e8:
                    c6:f5:30:a7:05:7e:b1:0f:89:6a:e4:19:82:35:be:
                    c9:e8:27:de:df:10:16:2e:38:f6:10:f3:fb:2e:63:
                    99:92:bd:40:79:e9:54:85:57:c0:b3:db:2f:4c:fd:
                    1b:05:5f:5d:59:5b:93:45:86:fd:54:b5:98:0c:5d:
                    54:ed
                Exponent: 65537 (0x10001)
        X509v3 extensions:
            X509v3 Basic Constraints: critical
                CA:FALSE
            X509v3 Key Usage: critical
                Digital Signature, Key Encipherment
            X509v3 Extended Key Usage: critical
                TLS Web Server Authentication
            X509v3 Subject Key Identifier: 
                08:B8:E8:A9:77:AE:1D:D1:84:99:BD:41:FE:86:28:05:BA:23:E7:8B
            X509v3 Authority Key Identifier: 
                keyid:F8:25:CA:42:17:BF:8F:E5:E3:38:76:F8:46:C8:86:2C:46:81:86:74

    Signature Algorithm: sha256WithRSAEncryption
         54:73:08:4d:fe:97:ad:fd:f5:79:df:1b:72:3e:91:51:78:d1:
         14:4d:64:a6:4b:d4:2a:49:85:b6:4c:29:46:50:d5:1f:d1:31:
         e7:9e:5a:16:db:12:bd:a5:54:68:b8:77:2c:ef:14:69:ac:7c:
         9a:4b:29:6b:f5:20:09:9b:5e:ad:01:c9:ad:85:67:c7:c9:1d:
         ad:f0:0f:8a:5c:7f:2f:b2:3c:43:3f:f1:7b:58:e1:f6:db:38:
         4f:4d:3d:63:1c:c6:33:ee:62:5b:1b:fa:7b:a8:1b:3c:e1:21:
         ba:49:79:55:b0:27:41:e0:4e:fe:84:5b:ad:70:9e:c2:42:2d:
         b2:07:19:61:c9:61:1d:9a:ec:44:c0:41:72:bb:e2:2f:47:38:
         69:f2:89:8e:fb:bd:b4:bf:fa:bf:80:c0:f4:01:c0:d9:f5:ba:
         a6:18:a5:5c:ac:80:9a:e3:49:57:f7:65:31:b1:bc:c7:cf:81:
         7b:88:a6:b8:58:0a:4a:b0:04:a9:17:50:fb:16:84:67:7f:f9:
         d9:7e:b0:72:2c:92:82:21:86:a8:ef:19:4f:90:51:b8:64:d5:
         81:0d:0b:da:93:53:75:a6:a4:a7:51:96:3a:54:ad:10:67:10:
         24:fa:cf:da:3f:d1:b9:64:01:37:a1:72:98:8c:70:5c:10:4e:
         c4:4f:76:03
-----BEGIN CERTIFICATE-----
MIIDzDCCArSgAwIBAgIBATANBgkqhkiG9w0BAQsFADBxMQswCQYDVQQGEwJERTEi
MCAGA1UECgwZRm9yIFRlc3RpbmcgUHVycG9zZXMgT25seTEZMBcGA1UECwwQQ2hy
aXN0aWFuIEhlaW1lczEjMCEGA1UEAwwaVHJ1c3QgVGVzdCBJbnRlcm1lZGlhdGUg
Q0EwHhcNMTYwMTI1MTAxOTUxWhcNMjYwMTI1MTAxOTUxWjBoMQswCQYDVQQGEwJE
RTEiMCAGA1UECgwZRm9yIFRlc3RpbmcgUHVycG9zZXMgT25seTEZMBcGA1UECwwQ
Q2hyaXN0aWFuIEhlaW1lczEaMBgGA1UEAwwRdHJ1c3QuZXhhbXBsZS5vcmcwggEi
MA0GCSqGSIb3DQEBAQUAA4IBDwAwggEKAoIBAQDFtCiogQwfbhMZbwFrm1/sPNA5
lpgrNyaa0fmB8Mh2fDEgqYRuuoFMRZ/w97tL/oENkV6vT8t+j59EIU+mBemg2agZ
5DWNjJTrqoe0oukTPT9ZEKlNcv1175XCB1W/vbpld+Q5VertcdEpKGN290JcMBVx
/ehIsJpDx6VDmfjah4IL28sgtJPDz8oglWlDcvV4rfnHkA6l9ux/pIDr+rZwblaD
hOFSc4/6s8V4unT5r1K7VSkYQs05Ggurjuey//yZ6Mb1MKcFfrEPiWrkGYI1vsno
J97fEBYuOPYQ8/suY5mSvUB56VSFV8Cz2y9M/RsFX11ZW5NFhv1UtZgMXVTtAgMB
AAGjeDB2MAwGA1UdEwEB/wQCMAAwDgYDVR0PAQH/BAQDAgWgMBYGA1UdJQEB/wQM
MAoGCCsGAQUFBwMBMB0GA1UdDgQWBBQIuOipd64d0YSZvUH+higFuiPnizAfBgNV
HSMEGDAWgBT4JcpCF7+P5eM4dvhGyIYsRoGGdDANBgkqhkiG9w0BAQsFAAOCAQEA
VHMITf6Xrf31ed8bcj6RUXjRFE1kpkvUKkmFtkwpRlDVH9Ex555aFtsSvaVUaLh3
LO8Uaax8mkspa/UgCZterQHJrYVnx8kdrfAPilx/L7I8Qz/xe1jh9ts4T009YxzG
M+5iWxv6e6gbPOEhukl5VbAnQeBO/oRbrXCewkItsgcZYclhHZrsRMBBcrviL0c4
afKJjvu9tL/6v4DA9AHA2fW6philXKyAmuNJV/dlMbG8x8+Be4imuFgKSrAEqRdQ
+xaEZ3/52X6wciySgiGGqO8ZT5BRuGTVgQ0L2pNTdaakp1GWOlStEGcQJPrP2j/R
uWQBN6FymIxwXBBOxE92Aw==
-----END CERTIFICATE-----
