Certificate:
    Data:
        Version: 3 (0x2)
        Serial Number: 2 (0x2)
    Signature Algorithm: sha256WithRSAEncryption
        Issuer: C=DE, O=For Testing Purposes Only, OU=Christian Heimes, CN=Trust Test Intermediate CA
        Validity
            Not Before: Jan 25 10:19:51 2016 GMT
            Not After : Jan 25 10:19:51 2026 GMT
        Subject: C=DE, O=For Testing Purposes Only, OU=Christian Heimes, CN=heimes
        Subject Public Key Info:
            Public Key Algorithm: rsaEncryption
                Public-Key: (2048 bit)
                Modulus:
                    00:aa:f8:ca:b1:3b:bd:40:6e:56:c7:53:00:5e:79:
                    92:e2:c5:5d:2f:b2:3e:67:fd:a0:f6:fd:56:26:2e:
                    bb:cd:bb:72:55:12:66:c8:41:86:41:b6:03:26:c8:
                    95:73:0e:92:a0:66:db:b2:c5:31:cc:2a:98:84:04:
                    8f:41:6b:de:b2:48:0c:ce:c6:96:b6:70:1f:5c:db:
                    8e:a4:e0:49:ff:88:e8:4f:9c:32:8f:56:4e:cb:f6:
                    7d:91:b8:87:26:91:ae:d2:90:dd:9e:76:ab:a7:4a:
                    c4:8b:d7:27:c1:1a:81:c3:ed:97:55:b9:b6:88:cc:
                    b0:54:ed:79:88:99:46:bd:0a:f2:2f:1a:92:e7:2f:
                    5f:e4:86:20:b3:fd:a2:c4:fd:b5:b6:da:9a:3a:34:
                    56:0d:c9:cf:2d:10:73:c8:71:6a:de:f5:a4:9a:cb:
                    35:5d:b1:c9:45:c0:27:6a:ce:e0:c7:e1:53:6f:98:
                    61:f4:b4:9e:cf:73:73:8e:74:03:9f:73:b4:62:6a:
                    0f:82:be:65:fd:73:16:c4:1f:a1:27:68:8e:b7:1e:
                    d2:b4:ba:e2:4c:30:19:61:35:ef:fa:c4:72:4f:e8:
                    b4:00:7c:f1:00:5d:da:e1:ef:bf:33:04:fb:b8:01:
                    3b:a5:69:a1:78:07:1b:34:f8:e5:5b:87:76:88:16:
                    a8:e9
                Exponent: 65537 (0x10001)
        X509v3 extensions:
            X509v3 Basic Constraints: critical
                CA:FALSE
            X509v3 Key Usage: critical
                Digital Signature, Key Encipherment
            X509v3 Extended Key Usage: critical
                TLS Web Client Authentication
            X509v3 Subject Key Identifier: 
                EB:0E:17:86:BF:15:40:8D:12:5B:37:84:AE:11:4C:4D:DC:F1:08:91
            X509v3 Authority Key Identifier: 
                keyid:F8:25:CA:42:17:BF:8F:E5:E3:38:76:F8:46:C8:86:2C:46:81:86:74

    Signature Algorithm: sha256WithRSAEncryption
         30:a9:9f:c5:7e:7b:ae:2c:1d:a0:1f:b4:cb:66:7f:ae:6e:2b:
         28:6a:16:0c:fa:7c:79:74:92:51:19:b8:3f:0e:c6:39:11:34:
         ba:ac:a5:a6:f3:82:b1:b7:d3:51:70:63:30:68:f3:3f:2e:9c:
         dc:d4:1f:9c:8c:85:95:2b:8f:24:1f:65:a7:d6:55:ca:39:13:
         3c:f0:58:d5:48:70:a7:30:d2:29:e0:ca:f5:7b:1d:45:eb:13:
         e3:a1:99:1b:73:47:5f:9d:e6:78:50:97:91:f1:3f:8b:37:b2:
         11:82:b7:22:49:bf:75:1b:d8:86:c7:9b:0e:43:e2:3d:b5:7b:
         8d:8c:0a:ba:4f:c3:e0:7d:68:0a:e5:bb:e6:cd:c6:7e:83:f6:
         df:d9:50:e9:72:f2:d7:c5:86:0b:b3:c1:67:bf:d7:67:c1:28:
         bf:66:cc:4a:07:b4:71:22:19:f4:1c:00:f1:5f:a6:17:66:12:
         d0:3c:e8:96:df:ee:1f:8f:4b:90:54:49:13:f1:83:d2:70:60:
         f9:1a:71:0f:89:78:26:d0:df:87:0f:69:de:c9:ec:5d:13:e3:
         5a:72:8e:5b:19:5a:c5:ba:80:84:05:83:e7:fe:46:c7:67:d4:
         4b:3b:69:99:91:d1:36:21:25:c3:be:ce:99:e7:d7:5f:cb:9e:
         48:35:0e:ee
-----BEGIN CERTIFICATE-----
MIIDwTCCAqmgAwIBAgIBAjANBgkqhkiG9w0BAQsFADBxMQswCQYDVQQGEwJERTEi
MCAGA1UECgwZRm9yIFRlc3RpbmcgUHVycG9zZXMgT25seTEZMBcGA1UECwwQQ2hy
aXN0aWFuIEhlaW1lczEjMCEGA1UEAwwaVHJ1c3QgVGVzdCBJbnRlcm1lZGlhdGUg
Q0EwHhcNMTYwMTI1MTAxOTUxWhcNMjYwMTI1MTAxOTUxWjBdMQswCQYDVQQGEwJE
RTEiMCAGA1UECgwZRm9yIFRlc3RpbmcgUHVycG9zZXMgT25seTEZMBcGA1UECwwQ
Q2hyaXN0aWFuIEhlaW1lczEPMA0GA1UEAwwGaGVpbWVzMIIBIjANBgkqhkiG9w0B
AQEFAAOCAQ8AMIIBCgKCAQEAqvjKsTu9QG5Wx1MAXnmS4sVdL7I+Z/2g9v1WJi67
zbtyVRJmyEGGQbYDJsiVcw6SoGbbssUxzCqYhASPQWveskgMzsaWtnAfXNuOpOBJ
/4joT5wyj1ZOy/Z9kbiHJpGu0pDdnnarp0rEi9cnwRqBw+2XVbm2iMywVO15iJlG
vQryLxqS5y9f5IYgs/2ixP21ttqaOjRWDcnPLRBzyHFq3vWkmss1XbHJRcAnas7g
x+FTb5hh9LSez3NzjnQDn3O0YmoPgr5l/XMWxB+hJ2iOtx7StLriTDAZYTXv+sRy
T+i0AHzxAF3a4e+/MwT7uAE7pWmheAcbNPjlW4d2iBao6QIDAQABo3gwdjAMBgNV
HRMBAf8EAjAAMA4GA1UdDwEB/wQEAwIFoDAWBgNVHSUBAf8EDDAKBggrBgEFBQcD
AjAdBgNVHQ4EFgQU6w4Xhr8VQI0SWzeErhFMTdzxCJEwHwYDVR0jBBgwFoAU+CXK
Qhe/j+XjOHb4RsiGLEaBhnQwDQYJKoZIhvcNAQELBQADggEBADCpn8V+e64sHaAf
tMtmf65uKyhqFgz6fHl0klEZuD8OxjkRNLqspabzgrG301FwYzBo8z8unNzUH5yM
hZUrjyQfZafWVco5EzzwWNVIcKcw0ingyvV7HUXrE+OhmRtzR1+d5nhQl5HxP4s3
shGCtyJJv3Ub2IbHmw5D4j21e42MCrpPw+B9aArlu+bNxn6D9t/ZUOly8tfFhguz
wWe/12fBKL9mzEoHtHEiGfQcAPFfphdmEtA86Jbf7h+PS5BUSRPxg9JwYPkacQ+J
eCbQ34cPad7J7F0T41pyjlsZWsW6gIQFg+f+Rsdn1Es7aZmR0TYhJcO+zpnn11/L
nkg1Du4=
-----END CERTIFICATE-----
