Certificate:
    Data:
        Version: 3 (0x2)
        Serial Number: 2 (0x2)
    Signature Algorithm: sha256WithRSAEncryption
        Issuer: C=DE, O=For Testing Purposes Only, OU=Christian Heimes, CN=Trust Test Root CA
        Validity
            Not Before: Jan 25 10:19:51 2016 GMT
            Not After : Jan 25 10:19:51 2026 GMT
        Subject: C=DE, O=For Testing Purposes Only, OU=Christian Heimes, CN=Trust Test Intermediate CA
        Subject Public Key Info:
            Public Key Algorithm: rsaEncryption
                Public-Key: (2048 bit)
                Modulus:
                    00:b2:3f:24:93:f5:08:90:f2:1c:f7:85:e7:64:07:
                    80:d4:87:3c:cd:cd:9f:8b:4f:23:d1:34:43:25:23:
                    9a:bc:d2:c7:7c:f3:cd:70:a1:63:3c:a0:a7:07:4c:
                    48:bd:4b:fc:dd:73:30:c5:13:9b:38:80:07:68:78:
                    53:99:fe:e2:a2:1d:31:6e:a9:54:e5:b0:aa:dc:67:
                    f9:e9:6a:ed:79:cb:57:ed:36:8e:72:ef:f8:a4:9e:
                    c2:86:3f:5d:61:9f:4b:81:a0:78:85:be:88:d4:f8:
                    ef:9f:65:4f:59:08:41:fd:46:24:d1:a0:7f:68:02:
                    f4:ca:d4:a2:72:1c:6b:6d:c1:46:05:09:bb:e5:5c:
                    1e:dc:6f:0c:e1:00:2b:fe:6e:b9:17:77:d0:49:69:
                    31:b8:e3:0c:aa:26:7b:0d:12:ce:4d:e3:12:d7:8f:
                    4a:87:6d:9b:51:6f:9b:5e:fa:a7:88:7a:ef:0c:d2:
                    15:5d:f9:94:0d:e9:62:ea:83:ed:f6:13:c4:75:e7:
                    07:59:31:c7:2a:69:b6:b5:dc:eb:74:c2:e7:66:5f:
                    10:ed:43:11:c5:62:c7:5f:18:17:d1:d2:89:75:2e:
                    c9:9e:c5:bd:5b:80:85:48:52:db:1d:17:f0:b9:36:
                    15:76:9a:94:22:21:98:43:f1:68:e2:aa:f2:2f:25:
                    c4:39
                Exponent: 65537 (0x10001)
        X509v3 extensions:
            X509v3 Basic Constraints: critical
                CA:TRUE
            X509v3 Key Usage: critical
                Certificate Sign, CRL Sign
            X509v3 Extended Key Usage: critical
                TLS Web Server Authentication, TLS Web Client Authentication
            X509v3 Subject Key Identifier: 
                F8:25:CA:42:17:BF:8F:E5:E3:38:76:F8:46:C8:86:2C:46:81:86:74
            X509v3 Authority Key Identifier: 
                keyid:90:C6:67:34:A3:14:3E:B8:0E:80:11:2B:5D:1F:31:29:38:50:75:D4

    Signature Algorithm: sha256WithRSAEncryption
         20:21:0e:62:9d:29:da:1c:1d:ee:c2:8f:f9:9f:b2:63:3d:6a:
         3f:6e:a0:3e:43:5f:cf:7e:a2:5c:3f:b1:8a:60:26:97:29:32:
         d8:04:d1:8d:3f:18:28:e1:14:72:7f:0a:9b:f6:57:6a:42:72:
         e8:8d:53:2b:6b:ac:e1:cb:a5:d7:d4:79:ca:fd:47:ad:90:28:
         d8:a1:66:97:2e:3f:4f:51:e9:2a:3f:37:1b:09:af:17:cf:69:
         26:66:c9:4c:95:d7:68:36:3c:0b:e6:b5:72:9a:82:d5:2d:9a:
         72:09:e6:25:9d:2b:08:94:ec:0d:b5:be:c6:b0:13:5e:69:5f:
         cd:91:6c:b0:25:d2:58:39:67:75:db:c0:45:d4:76:06:c2:1b:
         c1:01:ce:7b:cd:8e:ca:5d:8a:a3:2b:a6:d7:b9:41:d3:76:ff:
         99:59:25:4f:73:2c:65:d9:eb:83:29:7e:24:1e:b6:a3:a5:8d:
         3b:c7:b1:7b:e1:24:59:82:79:48:73:ac:53:aa:eb:9f:1a:78:
         fe:61:b5:8c:33:b0:fd:38:9e:12:ac:90:c3:38:30:25:f5:e4:
         b7:e3:bf:51:48:1e:4d:a1:09:14:f9:3f:e3:8c:f6:df:26:99:
         d9:0d:a0:59:2d:cc:71:92:df:e2:21:2d:43:a8:c0:19:e5:a1:
         99:c4:84:fb
-----BEGIN CERTIFICATE-----
MIID3DCCAsSgAwIBAgIBAjANBgkqhkiG9w0BAQsFADBpMQswCQYDVQQGEwJERTEi
MCAGA1UECgwZRm9yIFRlc3RpbmcgUHVycG9zZXMgT25seTEZMBcGA1UECwwQQ2hy
aXN0aWFuIEhlaW1lczEbMBkGA1UEAwwSVHJ1c3QgVGVzdCBSb290IENBMB4XDTE2
MDEyNTEwMTk1MVoXDTI2MDEyNTEwMTk1MVowcTELMAkGA1UEBhMCREUxIjAgBgNV
BAoMGUZvciBUZXN0aW5nIFB1cnBvc2VzIE9ubHkxGTAXBgNVBAsMEENocmlzdGlh
biBIZWltZXMxIzAhBgNVBAMMGlRydXN0IFRlc3QgSW50ZXJtZWRpYXRlIENBMIIB
IjANBgkqhkiG9w0BAQEFAAOCAQ8AMIIBCgKCAQEAsj8kk/UIkPIc94XnZAeA1Ic8
zc2fi08j0TRDJSOavNLHfPPNcKFjPKCnB0xIvUv83XMwxRObOIAHaHhTmf7ioh0x
bqlU5bCq3Gf56WrtectX7TaOcu/4pJ7Chj9dYZ9LgaB4hb6I1Pjvn2VPWQhB/UYk
0aB/aAL0ytSichxrbcFGBQm75Vwe3G8M4QAr/m65F3fQSWkxuOMMqiZ7DRLOTeMS
149Kh22bUW+bXvqniHrvDNIVXfmUDeli6oPt9hPEdecHWTHHKmm2tdzrdMLnZl8Q
7UMRxWLHXxgX0dKJdS7JnsW9W4CFSFLbHRfwuTYVdpqUIiGYQ/Fo4qryLyXEOQID
AQABo4GGMIGDMA8GA1UdEwEB/wQFMAMBAf8wDgYDVR0PAQH/BAQDAgEGMCAGA1Ud
JQEB/wQWMBQGCCsGAQUFBwMBBggrBgEFBQcDAjAdBgNVHQ4EFgQU+CXKQhe/j+Xj
OHb4RsiGLEaBhnQwHwYDVR0jBBgwFoAUkMZnNKMUPrgOgBErXR8xKThQddQwDQYJ
KoZIhvcNAQELBQADggEBACAhDmKdKdocHe7Cj/mfsmM9aj9uoD5DX89+olw/sYpg
JpcpMtgE0Y0/GCjhFHJ/Cpv2V2pCcuiNUytrrOHLpdfUecr9R62QKNihZpcuP09R
6So/NxsJrxfPaSZmyUyV12g2PAvmtXKagtUtmnIJ5iWdKwiU7A21vsawE15pX82R
bLAl0lg5Z3XbwEXUdgbCG8EBznvNjspdiqMrpte5QdN2/5lZJU9zLGXZ64MpfiQe
tqOljTvHsXvhJFmCeUhzrFOq658aeP5htYwzsP04nhKskMM4MCX15Lfjv1FIHk2h
CRT5P+OM9t8mmdkNoFktzHGS3+IhLUOowBnloZnEhPs=
-----END CERTIFICATE-----
